target datalayout = "e-m:e-p270:32:32-p271:32:32-p272:64:64-i64:64-i128:128-f80:128-n8:16:32:64-S128"
target triple = "x86_64-pc-linux-gnu"

@.str = private unnamed_addr constant [3 x i8] c"rb\00", align 1

; Function Attrs: nounwind uwtable
define ptr @stb_include_load_file(ptr noundef %0, ptr noundef %1) #0 {
  %3 = alloca ptr, align 8
  %4 = alloca ptr, align 8
  %5 = alloca ptr, align 8
  %6 = alloca ptr, align 8
  %7 = alloca i64, align 8
  %8 = alloca ptr, align 8
  %9 = alloca i32, align 4
  store ptr %0, ptr %4, align 8, !tbaa !3
  store ptr %1, ptr %5, align 8, !tbaa !8
  call void @llvm.lifetime.start.p0(i64 8, ptr %6) #8
  call void @llvm.lifetime.start.p0(i64 8, ptr %7) #8
  call void @llvm.lifetime.start.p0(i64 8, ptr %8) #8
  %10 = load ptr, ptr %4, align 8, !tbaa !3
  %11 = call noalias ptr @fopen(ptr noundef %10, ptr noundef @.str)
  store ptr %11, ptr %8, align 8, !tbaa !10
  %12 = load ptr, ptr %8, align 8, !tbaa !10
  %13 = icmp eq ptr %12, null
  br i1 %13, label %14, label %15

14:                                               ; preds = %2
  store ptr null, ptr %3, align 8
  store i32 1, ptr %9, align 4
  br label %45

15:                                               ; preds = %2
  %16 = load ptr, ptr %8, align 8, !tbaa !10
  %17 = call i32 @fseek(ptr noundef %16, i64 noundef 0, i32 noundef 2)
  %18 = load ptr, ptr %8, align 8, !tbaa !10
  %19 = call i64 @ftell(ptr noundef %18)
  store i64 %19, ptr %7, align 8, !tbaa !12
  %20 = load ptr, ptr %5, align 8, !tbaa !8
  %21 = icmp ne ptr %20, null
  br i1 %21, label %22, label %25

22:                                               ; preds = %15
  %23 = load i64, ptr %7, align 8, !tbaa !12
  %24 = load ptr, ptr %5, align 8, !tbaa !8
  store i64 %23, ptr %24, align 8, !tbaa !12
  br label %25

25:                                               ; preds = %22, %15
  %26 = load i64, ptr %7, align 8, !tbaa !12
  %27 = add i64 %26, 1
  %28 = call noalias ptr @malloc(i64 noundef %27) #9
  store ptr %28, ptr %6, align 8, !tbaa !3
  %29 = load ptr, ptr %6, align 8, !tbaa !3
  %30 = icmp eq ptr %29, null
  br i1 %30, label %31, label %32

31:                                               ; preds = %25
  store ptr null, ptr %3, align 8
  store i32 1, ptr %9, align 4
  br label %45

32:                                               ; preds = %25
  %33 = load ptr, ptr %8, align 8, !tbaa !10
  %34 = call i32 @fseek(ptr noundef %33, i64 noundef 0, i32 noundef 0)
  %35 = load ptr, ptr %6, align 8, !tbaa !3
  %36 = load i64, ptr %7, align 8, !tbaa !12
  %37 = load ptr, ptr %8, align 8, !tbaa !10
  %38 = call i64 @fread(ptr noundef %35, i64 noundef 1, i64 noundef %36, ptr noundef %37)
  %39 = load ptr, ptr %8, align 8, !tbaa !10
  %40 = call i32 @fclose(ptr noundef %39)
  %41 = load ptr, ptr %6, align 8, !tbaa !3
  %42 = load i64, ptr %7, align 8, !tbaa !12
  %43 = getelementptr inbounds nuw i8, ptr %41, i64 %42
  store i8 0, ptr %43, align 1, !tbaa !14
  %44 = load ptr, ptr %6, align 8, !tbaa !3
  store ptr %44, ptr %3, align 8
  store i32 1, ptr %9, align 4
  br label %45

45:                                               ; preds = %32, %31, %14
  call void @llvm.lifetime.end.p0(i64 8, ptr %8) #8
  call void @llvm.lifetime.end.p0(i64 8, ptr %7) #8
  call void @llvm.lifetime.end.p0(i64 8, ptr %6) #8
  %46 = load ptr, ptr %3, align 8
  ret ptr %46
}