; Function Attrs: nofree nounwind uwtable
define noalias noundef ptr @stb_include_load_file(ptr noundef readonly captures(none) %0, ptr noundef writeonly captures(address_is_null) %1) local_unnamed_addr #0 {
  %3 = tail call noalias ptr @fopen(ptr noundef %0, ptr noundef nonnull @.str)
  %4 = icmp eq ptr %3, null
  br i1 %4, label %18, label %5

5:                                                ; preds = %2
  %6 = tail call i32 @fseek(ptr noundef nonnull %3, i64 noundef 0, i32 noundef 2)
  %7 = tail call i64 @ftell(ptr noundef nonnull %3)
  %.not = icmp eq ptr %1, null
  br i1 %.not, label %9, label %8

8:                                                ; preds = %5
  store i64 %7, ptr %1, align 8, !tbaa !3
  br label %9

9:                                                ; preds = %8, %5
  %10 = add i64 %7, 1
  %11 = tail call noalias ptr @malloc(i64 noundef %10) #14
  %12 = icmp eq ptr %11, null
  br i1 %12, label %18, label %13

13:                                               ; preds = %9
  %14 = tail call i32 @fseek(ptr noundef nonnull %3, i64 noundef 0, i32 noundef 0)
  %15 = tail call i64 @fread(ptr noundef nonnull %11, i64 noundef 1, i64 noundef %7, ptr noundef nonnull %3)
  %16 = tail call i32 @fclose(ptr noundef nonnull %3)
  %17 = getelementptr inbounds nuw i8, ptr %11, i64 %7
  store i8 0, ptr %17, align 1, !tbaa !7
  br label %18

18:                                               ; preds = %9, %2, %13
  %.0 = phi ptr [ %11, %13 ], [ null, %2 ], [ null, %9 ]
  ret ptr %.0
}